target datalayout = "e-m:e-p270:32:32-p271:32:32-p272:64:64-i64:64-i128:128-f80:128-n8:16:32:64-S128"
target triple = "x86_64-pc-linux-gnu"

%struct.pa_sample_spec = type { i32, i32, i8 }

; Function Attrs: nounwind uwtable
define i32 @PaPulseAudio_ConvertPortaudioFormatToPaPulseAudio_(i64 noundef %0, ptr noundef %1) #0 {
  %3 = alloca i32, align 4
  %4 = alloca i64, align 8
  %5 = alloca ptr, align 8
  store i64 %0, ptr %4, align 8
  store ptr %1, ptr %5, align 8
  %6 = load i64, ptr %4, align 8
  switch i64 %6, label %26 [
    i64 1, label %7
    i64 2, label %10
    i64 4, label %13
    i64 8, label %16
    i64 16, label %19
    i64 32, label %22
    i64 65536, label %25
    i64 2147483648, label %25
  ]

7:                                                ; preds = %2
  %8 = load ptr, ptr %5, align 8
  %9 = getelementptr inbounds nuw %struct.pa_sample_spec, ptr %8, i32 0, i32 0
  store i32 5, ptr %9, align 4
  br label %26

10:                                               ; preds = %2
  %11 = load ptr, ptr %5, align 8
  %12 = getelementptr inbounds nuw %struct.pa_sample_spec, ptr %11, i32 0, i32 0
  store i32 7, ptr %12, align 4
  br label %26

13:                                               ; preds = %2
  %14 = load ptr, ptr %5, align 8
  %15 = getelementptr inbounds nuw %struct.pa_sample_spec, ptr %14, i32 0, i32 0
  store i32 9, ptr %15, align 4
  br label %26

16:                                               ; preds = %2
  %17 = load ptr, ptr %5, align 8
  %18 = getelementptr inbounds nuw %struct.pa_sample_spec, ptr %17, i32 0, i32 0
  store i32 3, ptr %18, align 4
  br label %26

19:                                               ; preds = %2
  %20 = load ptr, ptr %5, align 8
  %21 = getelementptr inbounds nuw %struct.pa_sample_spec, ptr %20, i32 0, i32 0
  store i32 0, ptr %21, align 4
  br label %26

22:                                               ; preds = %2
  %23 = load ptr, ptr %5, align 8
  %24 = getelementptr inbounds nuw %struct.pa_sample_spec, ptr %23, i32 0, i32 0
  store i32 0, ptr %24, align 4
  br label %26

25:                                               ; preds = %2, %2
  store i32 -9994, ptr %3, align 4
  br label %27

26:                                               ; preds = %22, %19, %16, %13, %10, %7, %2
  store i32 0, ptr %3, align 4
  br label %27

27:                                               ; preds = %26, %25
  %28 = load i32, ptr %3, align 4
  ret i32 %28
}